; Function Attrs: mustprogress nofree nounwind willreturn memory(read) uwtable
define noundef zeroext i1 @_ZN5osgeo4proj8internal8ci_equalERKNSt7__cxx1112basic_stringIcSt11char_traitsIcESaIcEEES9_(ptr noundef nonnull readonly align 8 captures(none) dereferenceable(32) %0, ptr noundef nonnull readonly align 8 captures(none) dereferenceable(32) %1) local_unnamed_addr #2 personality ptr @__gxx_personality_v0 {
  %3 = getelementptr inbounds nuw i8, ptr %0, i64 8
  %4 = load i64, ptr %3, align 8, !tbaa !12
  %5 = getelementptr inbounds nuw i8, ptr %1, i64 8
  %6 = load i64, ptr %5, align 8, !tbaa !12
  %.not = icmp eq i64 %4, %6
  br i1 %.not, label %7, label %12

7:                                                ; preds = %2
  %8 = load ptr, ptr %0, align 8, !tbaa !9
  %9 = load ptr, ptr %1, align 8, !tbaa !9
  %10 = tail call i32 @strncasecmp(ptr noundef readonly %8, ptr noundef readonly %9, i64 noundef %4) #24
  %11 = icmp eq i32 %10, 0
  br label %12

12:                                               ; preds = %2, %7
  %.0 = phi i1 [ %11, %7 ], [ false, %2 ]
  ret i1 %.0
}